; Function Attrs: nounwind uwtable
define ptr @l_Nat_pred___boxed(ptr noundef %0) local_unnamed_addr #0 {
  %2 = ptrtoint ptr %0 to i64
  %3 = and i64 %2, 1
  %.not.i3 = icmp eq i64 %3, 0
  br i1 %.not.i3, label %9, label %4, !prof !15

4:                                                ; preds = %1
  %5 = icmp ult ptr %0, inttoptr (i64 2 to ptr)
  br i1 %5, label %lean_dec.exit, label %6

6:                                                ; preds = %4
  %7 = add i64 %2, -2
  %8 = inttoptr i64 %7 to ptr
  br label %lean_dec.exit

9:                                                ; preds = %1
  %10 = tail call ptr @lean_nat_big_sub(ptr noundef %0, ptr noundef nonnull inttoptr (i64 3 to ptr)) #11
  %11 = load i32, ptr %0, align 4, !tbaa !4
  %12 = icmp sgt i32 %11, 1
  br i1 %12, label %13, label %15, !prof !9

13:                                               ; preds = %9
  %14 = add nsw i32 %11, -1
  store i32 %14, ptr %0, align 4, !tbaa !4
  br label %lean_dec.exit

15:                                               ; preds = %9
  %.not.i = icmp eq i32 %11, 0
  br i1 %.not.i, label %lean_dec.exit, label %16

16:                                               ; preds = %15
  tail call void @lean_dec_ref_cold(ptr noundef nonnull %0) #11
  br label %lean_dec.exit

lean_dec.exit:                                    ; preds = %6, %4, %16, %15, %13
  %.1.i.i5 = phi ptr [ %10, %13 ], [ %10, %15 ], [ %10, %16 ], [ inttoptr (i64 1 to ptr), %4 ], [ %8, %6 ]
  ret ptr %.1.i.i5
}